(dp1
S'Terence Cardinal Cooke-Cathedral'
p2
(ilibraries
Library
p3
(dp4
S'accessible'
p5
I00
sS'latLng'
p6
(F40.756928599999988
F-73.972723700000003
tp7
sS'number'
p8
S'(212) 752-3824\n'
p9
sS'name'
p10
S'Terence Cardinal Cooke-Cathedral \n'
p11
sS'address'
p12
S'560 Lexington Avenue (at E. 50th St., lower level), Manhattan, NY 10022-6828\n'
p13
sbsS'Westchester Square'
p14
(ilibraries
Library
p15
(dp16
g5
I00
sg6
(F40.840839299999999
F-73.846704299999999
tp17
sg8
S'(718) 863-0436\n'
p18
sg10
S'Westchester Square \n'
p19
sg12
S'2521 Glebe Avenue, Bronx, NY 10461\n'
p20
sbsS'Webster'
p21
(ilibraries
Library
p22
(dp23
g5
I01
sg6
(F40.769535300000001
F-73.948360600000001
tp24
sg8
S'(212) 288-5049\n'
p25
sg10
S'Webster \n'
p26
sg12
S'1465 York Avenue (near E. 78th St.), Manhattan, NY 10021-8895\n'
p27
sbsS'Port Richmond'
p28
(ilibraries
Library
p29
(dp30
g5
I00
sg6
(F40.637279100000001
F-74.131051799999995
tp31
sg8
S'(718) 442-0158\n'
p32
sg10
S'Port Richmond \n'
p33
sg12
S'75 Bennett Street (at Heberton Ave.), Staten Island, NY 10302\n'
p34
sbsS'Inwood'
p35
(ilibraries
Library
p36
(dp37
g5
I01
sg6
(F40.865490999999999
F-73.92727099999999
tp38
sg8
S'(212) 942-2445\n'
p39
sg10
S'Inwood \n'
p40
sg12
S'4790 Broadway (near Dyckman St.), Manhattan, NY 10034-4916\n'
p41
sbsS'Roosevelt Island'
p42
(ilibraries
Library
p43
(dp44
g5
I01
sg6
(F40.761218199999988
F-73.950206399999999
tp45
sg8
S'(212) 308-6243\n'
p46
sg10
S'Roosevelt Island \n'
p47
sg12
S'524 Main Street, Manhattan, NY 10044-0001\n'
p48
sbsS'125th Street'
p49
(ilibraries
Library
p50
(dp51
g5
I00
sg6
(F40.788027300000003
F-73.924283500000001
tp52
sg8
S'(212) 534-5050\n'
p53
sg10
S'125th Street \n'
p54
sg12
S'224 East 125th Street (near Third Ave.), Manhattan, NY 10035-1786\n'
p55
sbsS'Macombs Bridge'
p56
(ilibraries
Library
p57
(dp58
g5
I00
sg6
(F40.827573399999999
F-73.937479400000001
tp59
sg8
S'(212) 281-4900\n'
p60
sg10
S"Macomb's Bridge \n"
p61
sg12
S'2650 Adam Clayton Powell, Jr. Blvd. (between W. 152nd & 153rd Sts.), Manhattan, NY 10039-2004\n'
p62
sbsS'Van Cortlandt'
p63
(ilibraries
Library
p64
(dp65
g5
I01
sg6
(F40.887762299999999
F-73.887660099999991
tp66
sg8
S'(718) 543-5150\n'
p67
sg10
S'Van Cortlandt \n'
p68
sg12
S'3874 Sedgwick Avenue (south of Mosholu Parkway), Bronx, NY 10463\n'
p69
sbsS'Grand Central'
p70
(ilibraries
Library
p71
(dp72
g5
I01
sg6
(F40.7519846
F-73.969779500000001
tp73
sg8
S'(212) 621-0670\n'
p74
sg10
S'Grand Central \n'
p75
sg12
S'135 East 46th Street (between Lexington & Third Aves.), Manhattan, NY 10017\n'
p76
sbsS'Jerome Park'
p77
(ilibraries
Library
p78
(dp79
g5
I01
sg6
(F40.867759999999997
F-73.897173999999993
tp80
sg8
S'(718) 549-5200\n'
p81
sg10
S'Jerome Park \n'
p82
sg12
S'118 Eames Place (near Kingsbridge Rd.), Bronx, NY 10468\n'
p83
sbsS'St. George'
p84
(ilibraries
Library
p85
(dp86
g5
I01
sg6
(F40.6417833
F-74.076981799999999
tp87
sg8
S'(718) 442-8560\n'
p88
sg10
S'St. George Center\n'
p89
sg12
S'5 Central Avenue (near Borough Hall), Staten Island, NY 10301\n'
p90
sbsS'Mosholu'
p91
(ilibraries
Library
p92
(dp93
g5
I01
sg6
(F40.875907699999999
F-73.8761899
tp94
sg8
S'(718) 882-8239\n'
p95
sg10
S'Mosholu \n'
p96
sg12
S'285 East 205th Street (near Perry Ave.), Bronx, NY 10467\n'
p97
sbsS'Belmont'
p98
(ilibraries
Library
p99
(dp100
g5
I01
sg6
(F40.854403900000001
F-73.887700899999999
tp101
sg8
S'(718) 933-6410\n'
p102
sg10
S'Belmont and Enrico Fermi Cultural Center\n'
p103
sg12
S'610 E. 186th Street (at Hughes Ave.), Bronx, NY 10458\n'
p104
sbsS'Great Kills'
p105
(ilibraries
Library
p106
(dp107
g5
I01
sg6
(F40.5524889
F-74.150839500000004
tp108
sg8
S'(718) 984-6670\n'
p109
sg10
S'Great Kills \n'
p110
sg12
S'56 Giffords Lane (at Margaret St.), Staten Island, NY 10308\n'
p111
sbsS'Wakefield'
p112
(ilibraries
Library
p113
(dp114
g5
I01
sg6
(F40.891083999999999
F-73.859490999999991
tp115
sg8
S'(718) 652-4663\n'
p116
sg10
S'Wakefield \n'
p117
sg12
S'4100 Lowerre Place (at E. 229th St.), Bronx, NY 10466\n'
p118
sbsS'SIBL - Science Industry and Business'
p119
(ilibraries
Library
p120
(dp121
g5
I01
sg6
(F40.745716700000003
F-73.978119499999991
tp122
sg8
S'(917) 275-6975\n'
p123
sg10
S'SIBL - Science Industry and Business \n'
p124
sg12
S'188 Madison Avenue @ 34th Street, Manhattan, NY 10016-4314\n'
p125
sbsS'Ottendorfer'
p126
(ilibraries
Library
p127
(dp128
g5
I00
sg6
(F40.728577799999997
F-73.987680499999996
tp129
sg8
S'(212) 674-0947\n'
p130
sg10
S'Ottendorfer \n'
p131
sg12
S'135 Second Avenue (near E. 8th St. - St. Marks Place), Manhattan, NY 10003-8304\n'
p132
sbsS'Woodstock'
p133
(ilibraries
Library
p134
(dp135
g5
I00
sg6
(F40.834030200000001
F-73.896654400000003
tp136
sg8
S'(718) 665-6255\n'
p137
sg10
S'Woodstock \n'
p138
sg12
S'761 East 160th Street (west of Prospect Ave.), Bronx, NY 10456\n'
p139
sbsS'Sedgwick'
p140
(ilibraries
Library
p141
(dp142
g5
I01
sg6
(F40.849542900000003
F-73.917569299999997
tp143
sg8
S'(718) 731-2074\n'
p144
sg10
S'Sedgwick \n'
p145
sg12
S'1701 Martin Luther King, Jr. Blvd. (at W. 176th St.), Bronx, NY 10453\n'
p146
sbsS'Harlem'
p147
(ilibraries
Library
p148
(dp149
g5
I01
sg6
(F40.806215000000002
F-73.943275999999997
tp150
sg8
S'(212) 348-5620\n'
p151
sg10
S'Harlem \n'
p152
sg12
S'9 West 124th Street, Manhattan, NY 10027-5699\n'
p153
sbsS'Mid-Manhattan'
p154
(ilibraries
Library
p155
(dp156
g5
I01
sg6
(F40.752198399999997
F-73.981831200000002
tp157
sg8
S'(212) 340-0863\n'
p158
sg10
S'Mid-Manhattan \n'
p159
sg12
S'455 Fifth Avenue (at 40th Street), Manhattan, NY 10016-0122\n'
p160
sbsS'Chatham Square'
p161
(ilibraries
Library
p162
(dp163
g5
I01
sg6
(F40.765075000000003
F-73.957121999999998
tp164
sg8
S'(212) 964-6598\n'
p165
sg10
S'Chatham Square \n'
p166
sg12
S'33 East Broadway (near Catherine St.), Manhattan, NY 10002-6804\n'
p167
sbsS'Hunts Point'
p168
(ilibraries
Library
p169
(dp170
g5
I01
sg6
(F40.818617799999998
F-73.893878599999994
tp171
sg8
S'(718) 617-0338\n'
p172
sg10
S"Hunt's Point \n"
p173
sg12
S'877 Southern Boulevard (at Tiffany St.), Bronx, NY 10459\n'
p174
sbsS'96th Street'
p175
(ilibraries
Library
p176
(dp177
g5
I01
sg6
(F40.773007999999997
F-73.960319999999996
tp178
sg8
S'(212) 289-0908\n'
p179
sg10
S'96th Street \n'
p180
sg12
S'112 East 96th Street (near Lexington Ave.), Manhattan, NY 10128-2597\n'
p181
sbsS'Edenwald'
p182
(ilibraries
Library
p183
(dp184
g5
I01
sg6
(F40.888625500000003
F-73.840605999999994
tp185
sg8
S'(718) 798-3355\n'
p186
sg10
S'Edenwald \n'
p187
sg12
S'1255 East 233rd Street (at DeReimer Ave.), Bronx, NY 10466\n'
p188
sbsS'115th Street'
p189
(ilibraries
Library
p190
(dp191
g5
I01
sg6
(F40.802919799999998
F-73.953531299999995
tp192
sg8
S'(212) 666-9393\n'
p193
sg10
S'115th Street \n'
p194
sg12
S'203 West 115th Street, Manhattan, NY 10026-2403\n'
p195
sbsS'Pelham Bay'
p196
(ilibraries
Library
p197
(dp198
g5
I01
sg6
(F40.840608699999997
F-73.8296706
tp199
sg8
S'(718) 792-6744\n'
p200
sg10
S'Pelham Bay \n'
p201
sg12
S'3060 Middletown Road (north of Crosby Ave.), Bronx, NY 10461\n'
p202
sbsS'Mariners Harbor'
p203
(ilibraries
Library
p204
(dp205
g5
I01
sg6
(F40.631696900000001
F-74.162255799999997
tp206
sg8
S'(212) 621-0690\n'
p207
sg10
S'Mariner's Harbor \n'
p208
sg12
S'206 South Ave (between Arlington Pl. and Brabant St.), Staten Island, NY 10303\n'
p209
sbsS'George Bruce'
p210
(ilibraries
Library
p211
(dp212
g5
I01
sg6
(F40.813341999999999
F-73.956296999999992
tp213
sg8
S'(212) 662-9727\n'
p214
sg10
S'George Bruce \n'
p215
sg12
S'518 West 125th Street (at Amsterdam Ave.), Manhattan, NY 10027-3407\n'
p216
sbsS'Richmondtown'
p217
(ilibraries
Library
p218
(dp219
g5
I01
sg6
(F40.566550800000002
F-74.138593299999997
tp220
sg8
S'(718) 668-0413\n'
p221
sg10
S'Richmondtown \n'
p222
sg12
S'200 Clarke Avenue (at Amber St.), Staten Island, NY 10306\n'
p223
sbsS'Melrose'
p224
(ilibraries
Library
p225
(dp226
g5
I00
sg6
(F40.826602399999999
F-73.917652500000003
tp227
sg8
S'(718) 588-0110\n'
p228
sg10
S'Melrose \n'
p229
sg12
S'910 Morris Avenue (at E. 162nd St.), Bronx, NY 10451\n'
p230
sbsS'Castle Hill'
p231
(ilibraries
Library
p232
(dp233
g5
I01
sg6
(F40.826618000000003
F-73.850158999999991
tp234
sg8
S'(718) 824-3838\n'
p235
sg10
S'Castle Hill \n'
p236
sg12
S'947 Castle Hill Avenue (at Bruckner Blvd.), Bronx, NY 10473\n'
p237
sbsS'West New Brighton'
p238
(ilibraries
Library
p239
(dp240
g5
I01
sg6
(F40.634445900000003
F-74.114798999999991
tp241
sg8
S'(718) 442-1416\n'
p242
sg10
S'West New Brighton \n'
p243
sg12
S'976 Castleton Avenue (at N. Burgher Ave.), Staten Island, NY 10310\n'
p244
sbsS'Huguenot Park'
p245
(ilibraries
Library
p246
(dp247
g5
I01
sg6
(F40.534080000000003
F-74.193226899999999
tp248
sg8
S'(718) 984-4636\n'
p249
sg10
S'Huguenot Park \n'
p250
sg12
S'830 Huguenot Avenue (at Drumgoole Rd., East), Staten Island, NY 10312\n'
p251
sbsS'West Farms'
p252
(ilibraries
Library
p253
(dp254
g5
I01
sg6
(F40.843044599999999
F-73.8787679
tp255
sg8
S'(718) 367-5376\n'
p256
sg10
S'West Farms \n'
p257
sg12
S'2085 Honeywell Avenue (between E. 179th & 180th Sts.), Bronx, NY 10460\n'
p258
sbsS'Dongan Hills'
p259
(ilibraries
Library
p260
(dp261
g5
I01
sg6
(F40.6047352
F-74.091694399999994
tp262
sg8
S'(718) 351-1444\n'
p263
sg10
S'Dongan Hills \n'
p264
sg12
S'1617 Richmond Road (between Seaview & Liberty Aves.), Staten Island, NY 10304\n'
p265
sbsS'Kingsbridge'
p266
(ilibraries
Library
p267
(dp268
g5
I01
sg6
(F40.880643599999999
F-73.907873999999993
tp269
sg8
S'(718) 548-5656\n'
p270
sg10
S'Kingsbridge \n'
p271
sg12
S'291 West 231st Street, Bronx, NY 10463\n'
p272
sbsS'New Amsterdam'
p273
(ilibraries
Library
p274
(dp275
g5
I01
sg6
(F40.712833099999997
F-74.008993199999992
tp276
sg8
S'(212) 732-8186\n'
p277
sg10
S'New Amsterdam \n'
p278
sg12
S'9 Murray Street (between Broadway & Church St.), Manhattan, NY 10007-2223\n'
p279
sbsS'Allerton'
p280
(ilibraries
Library
p281
(dp282
g5
I01
sg6
(F40.872398699999998
F-73.8713099
tp283
sg8
S'(718) 881-4240\n'
p284
sg10
S'Allerton \n'
p285
sg12
S'2740 Barnes Avenue (between Allerton & Arnow Aves.), Bronx, NY 10467\n'
p286
sbsS'Bloomingdale'
p287
(ilibraries
Library
p288
(dp289
g5
I00
sg6
(F40.799920899999996
F-73.968310199999991
tp290
sg8
S'(212) 222-8030\n'
p291
sg10
S'Bloomingdale \n'
p292
sg12
S'150 West 100th Street (between Amsterdam & Columbus Aves.), Manhattan, NY 10025-5196\n'
p293
sbsS'Andrew Heiskell Braille and Talking Book'
p294
(ilibraries
Library
p295
(dp296
g5
I01
sg6
(F40.746496899999997
F-74.009447100000003
tp297
sg8
S'(212) 206-5400\n'
p298
sg10
S'Andrew Heiskell Braille and Talking Book \n'
p299
sg12
S'40 West 20th Street (between 5th and 6th Aves.), Manhattan, NY 10011-4211\n'
p300
sbsS'New York Public  for the Performing Arts, Dorothy and Lewis B. Cullman Center'
p301
(ilibraries
Library
p302
(dp303
g5
I01
sg6
(F40.772783099999998
F-73.984201999999996
tp304
sg8
S'(917) 275-6975\n'
p305
sg10
S'New York Public  for the Performing Arts, Dorothy and Lewis B. Cullman Center\n'
p306
sg12
S'40 Lincoln Center Plaza, Manhattan, NY 10023-7498\n'
p307
sbsS'Aguilar'
p308
(ilibraries
Library
p309
(dp310
g5
I01
sg6
(F40.791640699999988
F-73.944799399999994
tp311
sg8
S'(212) 534-2930\n'
p312
sg10
S'Aguilar \n'
p313
sg12
S'174 East 110th Street (between Lexington & Third Aves.), Manhattan, NY 10029-3212\n'
p314
sbsS'Mott Haven'
p315
(ilibraries
Library
p316
(dp317
g5
I01
sg6
(F40.811652100000003
F-73.924455699999996
tp318
sg8
S'(718) 665-4878\n'
p319
sg10
S'Mott Haven \n'
p320
sg12
S'321 East 140th Street (at Alexander Ave.), Bronx, NY 10454\n'
p321
sbsS'Throgs Neck'
p322
(ilibraries
Library
p323
(dp324
g5
I01
sg6
(F40.8391929
F-73.883280999999997
tp325
sg8
S'(718) 792-2612\n'
p326
sg10
S"Throg's Neck \n"
p327
sg12
S'3025 Cross Bronx Expressway Extension (at E. Tremont Ave.), Bronx, NY 10465\n'
p328
sbsS'Tompkins Square'
p329
(ilibraries
Library
p330
(dp331
g5
I01
sg6
(F40.725667799999997
F-73.9807816
tp332
sg8
S'(212) 228-4747\n'
p333
sg10
S'Tompkins Square \n'
p334
sg12
S'331 East 10th Street (near Avenue B), Manhattan, NY 10009-5099\n'
p335
sbsS'Schomburg Center'
p336
(ilibraries
Library
p337
(dp338
g5
I00
sg6
(F40.814479400000003
F-73.940943500000003
tp339
sg8
S'(917) 275-6975\n'
p340
sg10
S'Schomburg Center\n'
p341
sg12
S'515 Malcolm X Boulevard, Manhattan, NY 10037-1801\n'
p342
sbsS'City Island'
p343
(ilibraries
Library
p344
(dp345
g5
I01
sg6
(F40.847264600000003
F-73.786511300000001
tp346
sg8
S'(718) 885-1703\n'
p347
sg10
S'City Island \n'
p348
sg12
S'320 City Island Avenue (between Bay & Fordham Sts.), Bronx, NY 10464\n'
p349
sbsS'Battery Park City'
p350
(ilibraries
Library
p351
(dp352
g5
I01
sg6
(F40.715613699999999
F-74.015853199999995
tp353
sg8
S'(212) 790-3499\n'
p354
sg10
S'Battery Park City \n'
p355
sg12
S'175 North End Avenue (at Murray Street), Manhattan, NY 10282\n'
p356
sbsS'Mulberry Street'
p357
(ilibraries
Library
p358
(dp359
g5
I01
sg6
(F40.723331100000003
F-73.995740400000003
tp360
sg8
S'(212) 966-3424\n'
p361
sg10
S'Mulberry Street \n'
p362
sg12
S'10 Jersey Street (Between Lafayette & Mulberry Streets), Manhattan, NY 10012-3332\n'
p363
sbsS'South Beach'
p364
(ilibraries
Library
p365
(dp366
g5
I01
sg6
(F40.587908499999998
F-74.069233199999999
tp367
sg8
S'(718) 816-5834\n'
p368
sg10
S'South Beach \n'
p369
sg12
S'21-25 Robin Road (at Ocean Ave. & Father Capodanno Blvd.), Staten Island, NY 10305\n'
p370
sbsS'Parkchester'
p371
(ilibraries
Library
p372
(dp373
g5
I01
sg6
(F40.833754900000002
F-73.858363999999995
tp374
sg8
S'(718) 829-7830\n'
p375
sg10
S'Parkchester \n'
p376
sg12
S'1985 Westchester Avenue (at Pugsley Ave.), Bronx, NY 10462\n'
p377
sbsS'Pelham Parkway-Van Nest'
p378
(ilibraries
Library
p379
(dp380
g5
I00
sg6
(F40.854840000000003
F-73.8641729
tp381
sg8
S'(718) 829-5864\n'
p382
sg10
S'Pelham Parkway-Van Nest \n'
p383
sg12
S'2147 Barnes Avenue (near Pelham Parkway South), Bronx, NY 10462\n'
p384
sbsS'St. Agnes'
p385
(ilibraries
Library
p386
(dp387
g5
I01
sg6
(F40.786182699999998
F-73.981448599999993
tp388
sg8
S'(212) 621-0619\n'
p389
sg10
S'St. Agnes \n'
p390
sg12
S'444 Amsterdam Avenue (near @. 81st St.), Manhattan, NY 10024-5506\n'
p391
sbsS'Hamilton Fish Park'
p392
(ilibraries
Library
p393
(dp394
g5
I00
sg6
(F40.720421700000003
F-73.978384800000001
tp395
sg8
S'(212) 673-2290\n'
p396
sg10
S'Hamilton Fish Park \n'
p397
sg12
S'415 East Houston Street (near Avenue D), Manhattan, NY 10002-1197\n'
p398
sbsS'Hamilton Grange'
p399
(ilibraries
Library
p400
(dp401
g5
I01
sg6
(F40.825669900000001
F-73.948007500000003
tp402
sg8
S'(212) 926-2147\n'
p403
sg10
S'Hamilton Grange \n'
p404
sg12
S'503 West 145th Street, Manhattan, NY 10031-5101\n'
p405
sbsS'Bronx Library Center'
p406
(ilibraries
Library
p407
(dp408
g5
I01
sg6
(F40.863078999999999
F-73.894449699999996
tp409
sg8
S'(718) 579-4244\n'
p410
sg10
S'Bronx Library Center\n'
p411
sg12
S'310 East Kingsbridge Road (at Briggs Avenue), Bronx, NY 10458\n'
p412
sbsS'Morningside Heights'
p413
(ilibraries
Library
p414
(dp415
g5
I01
sg6
(F40.806045999999988
F-73.965224899999996
tp416
sg8
S'(212) 864-2530\n'
p417
sg10
S'Morningside Heights\n'
p418
sg12
S'2900 Broadway (at W. 113th St.), Manhattan, NY 10025-7822\n'
p419
sbsS'Tottenville'
p420
(ilibraries
Library
p421
(dp422
g5
I01
sg6
(F40.509847999999998
F-74.2441934
tp423
sg8
S'(718) 984-0945\n'
p424
sg10
S'Tottenville \n'
p425
sg12
S'7430 Amboy Road, Staten Island, NY 10307\n'
p426
sbsS'Stephen A. Schwarzman Building'
p427
(ilibraries
Library
p428
(dp429
g5
I01
sg6
(F40.753499099999999
F-73.980890899999991
tp430
sg8
S'(917) 275-6975\n'
p431
sg10
S'Stephen A. Schwarzman Building\n'
p432
sg12
S'Fifth Avenue at 42nd Street, Manhattan, NY 10018-2788\n'
p433
sbsS'Baychester'
p434
(ilibraries
Library
p435
(dp436
g5
I01
sg6
(F40.869266499999988
F-73.829489999999993
tp437
sg8
S'(718) 379-6700\n'
p438
sg10
S'Baychester \n'
p439
sg12
S'2049 Asch Loop North (north of Bartow Ave.), Bronx, NY 10475\n'
p440
sbsS'Riverside'
p441
(ilibraries
Library
p442
(dp443
g5
I01
sg6
(F40.7741641
F-73.984842599999993
tp444
sg8
S'(212) 870-1810\n'
p445
sg10
S'Riverside \n'
p446
sg12
S'127 Amsterdam Avenue (at W. 65th St.), Manhattan, NY 10023-6447\n'
p447
sbsS'Columbus'
p448
(ilibraries
Library
p449
(dp450
g5
I01
sg6
(F40.762915
F-73.985647
tp451
sg8
S'(212) 586-5098\n'
p452
sg10
S'Columbus \n'
p453
sg12
S'742 10th Avenue (between 50th & 51st Sts.), Manhattan, NY 10019-7019\n'
p454
sbsS'Morrisania'
p455
(ilibraries
Library
p456
(dp457
g5
I01
sg6
(F40.831219500000003
F-73.901762899999994
tp458
sg8
S'(718) 589-9268\n'
p459
sg10
S'Morrisania \n'
p460
sg12
S'610 East 169th Street (at Franklin Ave.), Bronx, NY 10456\n'
p461
sbsS'Hudson Park'
p462
(ilibraries
Library
p463
(dp464
g5
I00
sg6
(F40.732775099999998
F-74.003293499999998
tp465
sg8
S'(212) 243-6876\n'
p466
sg10
S'Hudson Park \n'
p467
sg12
S'66 Leroy Street (off Seventh Ave. South), Manhattan, NY 10014-3929\n'
p468
sbsS'High Bridge'
p469
(ilibraries
Library
p470
(dp471
g5
I01
sg6
(F40.837949000000002
F-73.92358999999999
tp472
sg8
S'(718) 293-7800\n'
p473
sg10
S'High Bridge \n'
p474
sg12
S'78 West 168th Street (at Woodycrest Ave.), Bronx, NY 10452\n'
p475
sbsS'Epiphany'
p476
(ilibraries
Library
p477
(dp478
g5
I01
sg6
(F40.738099699999999
F-73.980751700000013
tp479
sg8
S'(212) 679-2645\n'
p480
sg10
S'Epiphany \n'
p481
sg12
S'228 East 23rd Street (near Second Ave.), Manhattan, NY 10010-4672\n'
p482
sbsS'Tremont'
p483
(ilibraries
Library
p484
(dp485
g5
I01
sg6
(F40.846041999999997
F-73.89833999999999
tp486
sg8
S'(718) 299-5177\n'
p487
sg10
S'Tremont \n'
p488
sg12
S'1866 Washington Avenue (at E. 176th St.), Bronx, NY 10457\n'
p489
sbsS'Washington Heights'
p490
(ilibraries
Library
p491
(dp492
g5
I00
sg6
(F40.834505200000002
F-73.940051000000011
tp493
sg8
S'(212) 923-6054\n'
p494
sg10
S'Washington Heights \n'
p495
sg12
S'1000 St. Nicholas Avenue (at W. 160th St.), Manhattan, NY 10032-5202\n'
p496
sbsS'Seward Park'
p497
(ilibraries
Library
p498
(dp499
g5
I01
sg6
(F40.714142299999999
F-73.988695399999997
tp500
sg8
S'(212) 477-6770\n'
p501
sg10
S'Seward Park \n'
p502
sg12
S'192 East Broadway (at Jefferson St.), Manhattan, NY 10002-5597\n'
p503
sbsS'Woodlawn Heights'
p504
(ilibraries
Library
p505
(dp506
g5
I01
sg6
(F40.900572400000001
F-73.867768499999997
tp507
sg8
S'(718) 519-9627\n'
p508
sg10
S'Woodlawn Heights \n'
p509
sg12
S'4355 Katonah Avenue (at E. 239th St.), Bronx, NY 10470\n'
p510
sbsS'Clasons Point'
p511
(ilibraries
Library
p512
(dp513
g5
I01
sg6
(F40.833022
F-73.862728399999995
tp514
sg8
S'(718) 842-1235\n'
p515
sg10
S"Clason's Point \n"
p516
sg12
S'1215 Morrison Avenue (near Westchester Ave.), Bronx, NY 10472\n'
p517
sbsS'67th Street'
p518
(ilibraries
Library
p519
(dp520
g5
I01
sg6
(F40.763053999999997
F-73.95946219999999
tp521
sg8
S'(212) 734-1717\n'
p522
sg10
S'67th Street \n'
p523
sg12
S'328 East 67th Street (near First Ave.), Manhattan, NY 10065-6204\n'
p524
sbsS'Stapleton'
p525
(ilibraries
Library
p526
(dp527
g5
I01
sg6
(F40.626458499999998
F-74.077997400000001
tp528
sg8
S'(718) 727-0427\n'
p529
sg10
S'Stapleton \n'
p530
sg12
S'132 Canal St. (at Wright St.), Staten Island, NY 10304\n'
p531
sbsS'Jefferson Market'
p532
(ilibraries
Library
p533
(dp534
g5
I01
sg6
(F40.734789900000003
F-73.998718199999999
tp535
sg8
S'(212) 243-4334\n'
p536
sg10
S'Jefferson Market \n'
p537
sg12
S'425 Avenue of the Americas (at 10th St.), Manhattan, NY 10011-8454\n'
p538
sbsS'Morris Park'
p539
(ilibraries
Library
p540
(dp541
g5
I01
sg6
(F40.838252199999999
F-73.856608699999995
tp542
sg8
S'(718) 931-0636\n'
p543
sg10
S'Morris Park \n'
p544
sg12
S'985 Morris Park Avenue (between Radcliff and Colden Aves.), Bronx, NY 10462\n'
p545
sbsS'Francis Martin'
p546
(ilibraries
Library
p547
(dp548
g5
I01
sg6
(F40.857525000000003
F-73.909633299999996
tp549
sg8
S'(718) 295-5287\n'
p550
sg10
S'Francis Martin \n'
p551
sg12
S'2150 University Avenue (at 181st St.), Bronx, NY 10453\n'
p552
sbsS'Fort Washington'
p553
(ilibraries
Library
p554
(dp555
g5
I00
sg6
(F40.855776499999997
F-73.944799399999994
tp556
sg8
S'(212) 927-3533\n'
p557
sg10
S'Fort Washington \n'
p558
sg12
S'535 West 179th Street (between St. Nicholas & Audubon Aves.), Manhattan, NY 10033-5799\n'
p559
sbsS'Soundview'
p560
(ilibraries
Library
p561
(dp562
g5
I00
sg6
(F40.818363900000001
F-73.862936300000001
tp563
sg8
S'(718) 589-0880\n'
p564
sg10
S'Soundview \n'
p565
sg12
S'660 Soundview Avenue (at Seward Ave.), Bronx, NY 10473\n'
p566
sbsS'New Dorp'
p567
(ilibraries
Library
p568
(dp569
g5
I01
sg6
(F40.571928999999997
F-74.1119609
tp570
sg8
S'(718) 351-2977\n'
p571
sg10
S'New Dorp \n'
p572
sg12
S'309 New Dorp Lane, Staten Island, NY 10306\n'
p573
sbsS'Kips Bay'
p574
(ilibraries
Library
p575
(dp576
g5
I01
sg6
(F40.743820300000003
F-73.979500099999996
tp577
sg8
S'(212) 683-2520\n'
p578
sg10
S'Kips Bay \n'
p579
sg12
S'446 Third Avenue (at E. 31st St.), Manhattan, NY 10016-6025\n'
p580
sbsS'Riverdale'
p581
(ilibraries
Library
p582
(dp583
g5
I01
sg6
(F40.903664900000003
F-73.902598999999995
tp584
sg8
S'(718) 549-1212\n'
p585
sg10
S'Riverdale \n'
p586
sg12
S'5540 Mosholu Avenue (at W. 256th St.), Bronx, NY 10471\n'
p587
sbsS'Countee Cullen'
p588
(ilibraries
Library
p589
(dp590
g5
I01
sg6
(F40.816379900000001
F-73.939297400000001
tp591
sg8
S'(212) 491-2070\n'
p592
sg10
S'Countee Cullen \n'
p593
sg12
S'104 West 136th Street (near Lenox Ave.), Manhattan, NY 10030-2695\n'
p594
sbsS'Muhlenberg'
p595
(ilibraries
Library
p596
(dp597
g5
I01
sg6
(F40.740762799999999
F-73.99807349999999
tp598
sg8
S'(212) 924-1585\n'
p599
sg10
S'Muhlenberg \n'
p600
sg12
S'209 West 23rd Street (near Seventh Ave.), Manhattan, NY 10011-2379\n'
p601
sbsS'Donnell Center'
p602
(ilibraries
Library
p603
(dp604
g5
I00
sg6
(F40.760824999999997
F-73.977246100000002
tp605
sg8
S'The Donnell  is expected to reopen Winter 2015.\n'
p606
sg10
S'Donnell  Center\n'
p607
sg12
S'20 West 53rd Street, Manhattan, NY 10019-6185\n'
p608
sbsS'Eastchester'
p609
(ilibraries
Library
p610
(dp611
g5
I01
sg6
(F40.870435100000002
F-73.8432277
tp612
sg8
S'(718) 653-3292\n'
p613
sg10
S'Eastchester \n'
p614
sg12
S'1385 East Gun Hill Road (near Eastchester Rd.), Bronx, NY 10469\n'
p615
sbsS'Yorkville'
p616
(ilibraries
Library
p617
(dp618
g5
I00
sg6
(F40.7700703
F-73.958024600000002
tp619
sg8
S'(212) 744-5824\n'
p620
sg10
S'Yorkville \n'
p621
sg12
S'222 East 79th Street (between Second & Third Aves.), Manhattan, NY 10021-1295\n'
p622
sbsS'Spuyten Duyvil'
p623
(ilibraries
Library
p624
(dp625
g5
I00
sg6
(F40.886242000000003
F-73.914631999999997
tp626
sg8
S'(718) 796-1202\n'
p627
sg10
S'Spuyten Duyvil \n'
p628
sg12
S'650 W. 235th St. (at Independence Ave.), Bronx, NY 10463\n'
p629
sbsS'58th Street'
p630
(ilibraries
Library
p631
(dp632
g5
I00
sg6
(F40.759394100000002
F-73.969779500000001
tp633
sg8
S'(212) 759-7358\n'
p634
sg10
S'58th Street \n'
p635
sg12
S'127 East 58th Street (between Park & Lexington Aves.), Manhattan, NY 10022-1211\n'
p636
sbsS'Todt Hill-Westerleigh'
p637
(ilibraries
Library
p638
(dp639
g5
I01
sg6
(F40.611704400000001
F-74.146751699999996
tp640
sg8
S'(718) 494-1642\n'
p641
sg10
S'Todt Hill-Westerleigh \n'
p642
sg12
S'2550 Victory Boulevard (past Willowbrook Rd.), Staten Island, NY 10314\n'
p643
sbsS'Grand Concourse'
p644
(ilibraries
Library
p645
(dp646
g5
I00
sg6
(F40.843948699999999
F-73.910072
tp647
sg8
S'(718) 583-6611\n'
p648
sg10
S'Grand Concourse \n'
p649
sg12
S'155 East 173rd Street (east of Grand Concourse), Bronx, NY 10457\n'
p650
sbs.